target datalayout = "e-m:e-p270:32:32-p271:32:32-p272:64:64-i64:64-i128:128-f80:128-n8:16:32:64-S128"
target triple = "x86_64-pc-linux-gnu"

%"class.gmx::AbstractAnalysisData::Impl" = type { %"class.std::vector", i8, %"class.gmx::AnalysisDataModuleManager" }
%"class.std::vector" = type { %"struct.std::_Vector_base" }
%"struct.std::_Vector_base" = type { %"struct.std::_Vector_base<int, std::allocator<int>>::_Vector_impl" }
%"struct.std::_Vector_base<int, std::allocator<int>>::_Vector_impl" = type { %"struct.std::_Vector_base<int, std::allocator<int>>::_Vector_impl_data" }
%"struct.std::_Vector_base<int, std::allocator<int>>::_Vector_impl_data" = type { ptr, ptr, ptr }
%"class.gmx::AnalysisDataModuleManager" = type { %"class.std::unique_ptr" }
%"class.std::unique_ptr" = type { %"struct.std::__uniq_ptr_data" }
%"struct.std::__uniq_ptr_data" = type { %"class.std::__uniq_ptr_impl" }
%"class.std::__uniq_ptr_impl" = type { %"class.std::tuple" }
%"class.std::tuple" = type { %"struct.std::_Tuple_impl" }
%"struct.std::_Tuple_impl" = type { %"struct.std::_Head_base.1" }
%"struct.std::_Head_base.1" = type { ptr }
%"class.gmx::AbstractAnalysisData" = type { ptr, %"class.std::unique_ptr.2" }
%"class.std::unique_ptr.2" = type { %"struct.std::__uniq_ptr_data.3" }
%"struct.std::__uniq_ptr_data.3" = type { %"class.std::__uniq_ptr_impl.4" }
%"class.std::__uniq_ptr_impl.4" = type { %"class.std::tuple.5" }
%"class.std::tuple.5" = type { %"struct.std::_Tuple_impl.6" }
%"struct.std::_Tuple_impl.6" = type { %"struct.std::_Head_base.9" }
%"struct.std::_Head_base.9" = type { ptr }
%class.anon.41 = type { i8 }
%class.anon.43 = type { i8 }

@.str.2 = private unnamed_addr constant [135 x i8] c"generated/home/dtcxzyw/WorkSpace/Projects/compilers/llvm-opt-benchmark/bench/gromacs/gromacs/src/gromacs/analysisdata/abstractdata.cpp\00", align 1
@.str.9 = private unnamed_addr constant [26 x i8] c"Invalid data column count\00", align 1
@.str.11 = private unnamed_addr constant [41 x i8] c"dataSet >= 0 && dataSet < dataSetCount()\00", align 1
@.str.12 = private unnamed_addr constant [28 x i8] c"Out of range data set index\00", align 1
@"__PRETTY_FUNCTION__._ZZN3gmx20AbstractAnalysisData14setColumnCountEiiENK3$_0clEv" = private unnamed_addr constant [96 x i8] c"auto gmx::AbstractAnalysisData::setColumnCount(int, int)::(anonymous class)::operator()() const\00", align 1
@.str.13 = private unnamed_addr constant [16 x i8] c"columnCount > 0\00", align 1

; Function Attrs: mustprogress nounwind uwtable
define linkonce_odr noundef nonnull align 8 dereferenceable(8) ptr @_ZNSt10_Head_baseILm0EPN3gmx20AbstractAnalysisData4ImplELb0EE7_M_headERKS4_(ptr noundef nonnull align 8 dereferenceable(8) %0) #0 comdat align 2 {
  %2 = alloca ptr, align 8
  store ptr %0, ptr %2, align 8, !tbaa !73
  %3 = load ptr, ptr %2, align 8, !tbaa !73
  %4 = getelementptr inbounds nuw %"struct.std::_Head_base.9", ptr %3, i32 0, i32 0
  ret ptr %4
}

; Function Attrs: mustprogress nounwind uwtable
define linkonce_odr noundef nonnull align 8 dereferenceable(8) ptr @_ZNSt11_Tuple_implILm0EJPN3gmx20AbstractAnalysisData4ImplESt14default_deleteIS2_EEE7_M_headERKS6_(ptr noundef nonnull align 8 dereferenceable(8) %0) #0 comdat align 2 {
  %2 = alloca ptr, align 8
  store ptr %0, ptr %2, align 8, !tbaa !69
  %3 = load ptr, ptr %2, align 8, !tbaa !69
  %4 = call noundef nonnull align 8 dereferenceable(8) ptr @_ZNSt10_Head_baseILm0EPN3gmx20AbstractAnalysisData4ImplELb0EE7_M_headERKS4_(ptr noundef nonnull align 8 dereferenceable(8) %3) #18
  ret ptr %4
}

; Function Attrs: mustprogress nounwind uwtable
define linkonce_odr noundef nonnull align 8 dereferenceable(8) ptr @_ZSt12__get_helperILm0EPN3gmx20AbstractAnalysisData4ImplEJSt14default_deleteIS2_EEERKT0_RKSt11_Tuple_implIXT_EJS6_DpT1_EE(ptr noundef nonnull align 8 dereferenceable(8) %0) #0 comdat {
  %2 = alloca ptr, align 8
  store ptr %0, ptr %2, align 8, !tbaa !69
  %3 = load ptr, ptr %2, align 8, !tbaa !69
  %4 = call noundef nonnull align 8 dereferenceable(8) ptr @_ZNSt11_Tuple_implILm0EJPN3gmx20AbstractAnalysisData4ImplESt14default_deleteIS2_EEE7_M_headERKS6_(ptr noundef nonnull align 8 dereferenceable(8) %3) #18
  ret ptr %4
}

; Function Attrs: mustprogress nounwind uwtable
define linkonce_odr noundef nonnull align 8 dereferenceable(8) ptr @_ZSt3getILm0EJPN3gmx20AbstractAnalysisData4ImplESt14default_deleteIS2_EEERKNSt13tuple_elementIXT_ESt5tupleIJDpT0_EEE4typeERKSA_(ptr noundef nonnull align 8 dereferenceable(8) %0) #0 comdat {
  %2 = alloca ptr, align 8
  store ptr %0, ptr %2, align 8, !tbaa !67
  %3 = load ptr, ptr %2, align 8, !tbaa !67
  %4 = call noundef nonnull align 8 dereferenceable(8) ptr @_ZSt12__get_helperILm0EPN3gmx20AbstractAnalysisData4ImplEJSt14default_deleteIS2_EEERKT0_RKSt11_Tuple_implIXT_EJS6_DpT1_EE(ptr noundef nonnull align 8 dereferenceable(8) %3) #18
  ret ptr %4
}

; Function Attrs: mustprogress nounwind uwtable
define linkonce_odr noundef ptr @_ZNKSt15__uniq_ptr_implIN3gmx20AbstractAnalysisData4ImplESt14default_deleteIS2_EE6_M_ptrEv(ptr noundef nonnull align 8 dereferenceable(8) %0) #0 comdat align 2 {
  %2 = alloca ptr, align 8
  store ptr %0, ptr %2, align 8, !tbaa !65
  %3 = load ptr, ptr %2, align 8
  %4 = getelementptr inbounds nuw %"class.std::__uniq_ptr_impl.4", ptr %3, i32 0, i32 0
  %5 = call noundef nonnull align 8 dereferenceable(8) ptr @_ZSt3getILm0EJPN3gmx20AbstractAnalysisData4ImplESt14default_deleteIS2_EEERKNSt13tuple_elementIXT_ESt5tupleIJDpT0_EEE4typeERKSA_(ptr noundef nonnull align 8 dereferenceable(8) %4) #18
  %6 = load ptr, ptr %5, align 8, !tbaa !9
  ret ptr %6
}

; Function Attrs: mustprogress nounwind uwtable
define linkonce_odr noundef ptr @_ZNKSt10unique_ptrIN3gmx20AbstractAnalysisData4ImplESt14default_deleteIS2_EE3getEv(ptr noundef nonnull align 8 dereferenceable(8) %0) #0 comdat align 2 {
  %2 = alloca ptr, align 8
  store ptr %0, ptr %2, align 8, !tbaa !61
  %3 = load ptr, ptr %2, align 8
  %4 = getelementptr inbounds nuw %"class.std::unique_ptr.2", ptr %3, i32 0, i32 0
  %5 = call noundef ptr @_ZNKSt15__uniq_ptr_implIN3gmx20AbstractAnalysisData4ImplESt14default_deleteIS2_EE6_M_ptrEv(ptr noundef nonnull align 8 dereferenceable(8) %4) #18
  ret ptr %5
}

; Function Attrs: mustprogress nounwind uwtable
define linkonce_odr noundef i64 @_ZNKSt6vectorIiSaIiEE4sizeEv(ptr noundef nonnull align 8 dereferenceable(24) %0) #0 comdat align 2 {
  %2 = alloca ptr, align 8
  store ptr %0, ptr %2, align 8, !tbaa !29
  %3 = load ptr, ptr %2, align 8
  %4 = getelementptr inbounds nuw %"struct.std::_Vector_base", ptr %3, i32 0, i32 0
  %5 = getelementptr inbounds nuw %"struct.std::_Vector_base<int, std::allocator<int>>::_Vector_impl_data", ptr %4, i32 0, i32 1
  %6 = load ptr, ptr %5, align 8, !tbaa !33
  %7 = getelementptr inbounds nuw %"struct.std::_Vector_base", ptr %3, i32 0, i32 0
  %8 = getelementptr inbounds nuw %"struct.std::_Vector_base<int, std::allocator<int>>::_Vector_impl_data", ptr %7, i32 0, i32 0
  %9 = load ptr, ptr %8, align 8, !tbaa !32
  %10 = ptrtoint ptr %6 to i64
  %11 = ptrtoint ptr %9 to i64
  %12 = sub i64 %10, %11
  %13 = sdiv exact i64 %12, 4
  ret i64 %13
}

; Function Attrs: mustprogress nounwind uwtable
define linkonce_odr noundef nonnull align 4 dereferenceable(4) ptr @_ZNSt6vectorIiSaIiEEixEm(ptr noundef nonnull align 8 dereferenceable(24) %0, i64 noundef %1) #0 comdat align 2 {
  %3 = alloca ptr, align 8
  %4 = alloca i64, align 8
  store ptr %0, ptr %3, align 8, !tbaa !29
  store i64 %1, ptr %4, align 8, !tbaa !45
  %5 = load ptr, ptr %3, align 8
  %6 = getelementptr inbounds nuw %"struct.std::_Vector_base", ptr %5, i32 0, i32 0
  %7 = getelementptr inbounds nuw %"struct.std::_Vector_base<int, std::allocator<int>>::_Vector_impl_data", ptr %6, i32 0, i32 0
  %8 = load ptr, ptr %7, align 8, !tbaa !32
  %9 = load i64, ptr %4, align 8, !tbaa !45
  %10 = getelementptr inbounds nuw i32, ptr %8, i64 %9
  ret ptr %10
}

; Function Attrs: mustprogress nounwind uwtable
define linkonce_odr noundef ptr @_ZNKSt10unique_ptrIN3gmx20AbstractAnalysisData4ImplESt14default_deleteIS2_EEptEv(ptr noundef nonnull align 8 dereferenceable(8) %0) #0 comdat align 2 {
  %2 = alloca ptr, align 8
  store ptr %0, ptr %2, align 8, !tbaa !61
  %3 = load ptr, ptr %2, align 8
  %4 = call noundef ptr @_ZNKSt10unique_ptrIN3gmx20AbstractAnalysisData4ImplESt14default_deleteIS2_EE3getEv(ptr noundef nonnull align 8 dereferenceable(8) %3) #18
  ret ptr %4
}

; Function Attrs: mustprogress nounwind uwtable
define noundef i32 @_ZNK3gmx20AbstractAnalysisData11columnCountEi(ptr noundef nonnull align 8 dereferenceable(16) %0, i32 noundef %1) #0 align 2 {
  %3 = alloca ptr, align 8
  %4 = alloca i32, align 4
  store ptr %0, ptr %3, align 8, !tbaa !4
  store i32 %1, ptr %4, align 4, !tbaa !27
  %5 = load ptr, ptr %3, align 8
  %6 = getelementptr inbounds nuw %"class.gmx::AbstractAnalysisData", ptr %5, i32 0, i32 1
  %7 = call noundef ptr @_ZNKSt10unique_ptrIN3gmx20AbstractAnalysisData4ImplESt14default_deleteIS2_EEptEv(ptr noundef nonnull align 8 dereferenceable(8) %6) #18
  %8 = getelementptr inbounds nuw %"class.gmx::AbstractAnalysisData::Impl", ptr %7, i32 0, i32 0
  %9 = load i32, ptr %4, align 4, !tbaa !27
  %10 = sext i32 %9 to i64
  %11 = call noundef nonnull align 4 dereferenceable(4) ptr @_ZNSt6vectorIiSaIiEEixEm(ptr noundef nonnull align 8 dereferenceable(24) %8, i64 noundef %10) #18
  %12 = load i32, ptr %11, align 4, !tbaa !27
  ret i32 %12
}

; Function Attrs: inlinehint mustprogress uwtable
define internal void @"_ZZN3gmx20AbstractAnalysisData14setColumnCountEiiENK3$_1clEv"(ptr noundef nonnull align 1 dereferenceable(1) %0) #12 align 2 {
  %2 = alloca ptr, align 8
  store ptr %0, ptr %2, align 8, !tbaa !58
  call void @_ZN3gmx8internal13assertHandlerEPKcS2_S2_S2_i(ptr noundef @.str.13, ptr noundef @.str.9, ptr noundef @"__PRETTY_FUNCTION__._ZZN3gmx20AbstractAnalysisData14setColumnCountEiiENK3$_0clEv", ptr noundef @.str.2, i32 noundef 184) #19
  unreachable
}

; Function Attrs: inlinehint mustprogress uwtable
define internal void @"_ZZN3gmx20AbstractAnalysisData14setColumnCountEiiENK3$_0clEv"(ptr noundef nonnull align 1 dereferenceable(1) %0) #12 align 2 {
  %2 = alloca ptr, align 8
  store ptr %0, ptr %2, align 8, !tbaa !58
  call void @_ZN3gmx8internal13assertHandlerEPKcS2_S2_S2_i(ptr noundef @.str.11, ptr noundef @.str.12, ptr noundef @"__PRETTY_FUNCTION__._ZZN3gmx20AbstractAnalysisData14setColumnCountEiiENK3$_0clEv", ptr noundef @.str.2, i32 noundef 183) #19
  unreachable
}

; Function Attrs: mustprogress nounwind uwtable
define noundef i32 @_ZNK3gmx20AbstractAnalysisData12dataSetCountEv(ptr noundef nonnull align 8 dereferenceable(16) %0) #0 align 2 {
  %2 = alloca ptr, align 8
  store ptr %0, ptr %2, align 8, !tbaa !4
  %3 = load ptr, ptr %2, align 8
  %4 = getelementptr inbounds nuw %"class.gmx::AbstractAnalysisData", ptr %3, i32 0, i32 1
  %5 = call noundef ptr @_ZNKSt10unique_ptrIN3gmx20AbstractAnalysisData4ImplESt14default_deleteIS2_EEptEv(ptr noundef nonnull align 8 dereferenceable(8) %4) #18
  %6 = getelementptr inbounds nuw %"class.gmx::AbstractAnalysisData::Impl", ptr %5, i32 0, i32 0
  %7 = call noundef i64 @_ZNKSt6vectorIiSaIiEE4sizeEv(ptr noundef nonnull align 8 dereferenceable(24) %6) #18
  %8 = trunc i64 %7 to i32
  ret i32 %8
}

; Function Attrs: mustprogress uwtable
define void @_ZN3gmx20AbstractAnalysisData14setColumnCountEii(ptr noundef nonnull align 8 dereferenceable(16) %0, i32 noundef %1, i32 noundef %2) #1 align 2 {
  %4 = alloca ptr, align 8
  %5 = alloca i32, align 4
  %6 = alloca i32, align 4
  %7 = alloca %class.anon.41, align 1
  %8 = alloca %class.anon.43, align 1
  %9 = alloca i8, align 1
  %10 = alloca i32, align 4
  store ptr %0, ptr %4, align 8, !tbaa !4
  store i32 %1, ptr %5, align 4, !tbaa !27
  store i32 %2, ptr %6, align 4, !tbaa !27
  %11 = load ptr, ptr %4, align 8
  %12 = load i32, ptr %5, align 4, !tbaa !27
  %13 = icmp sge i32 %12, 0
  call void @llvm.lifetime.start.p0(i64 1, ptr %7) #18
  br i1 %13, label %14, label %19

14:                                               ; preds = %3
  %15 = load i32, ptr %5, align 4, !tbaa !27
  %16 = call noundef i32 @_ZNK3gmx20AbstractAnalysisData12dataSetCountEv(ptr noundef nonnull align 8 dereferenceable(16) %11)
  %17 = icmp slt i32 %15, %16
  br i1 %17, label %18, label %19

18:                                               ; preds = %14
  br label %20

19:                                               ; preds = %14, %3
  call void @"_ZZN3gmx20AbstractAnalysisData14setColumnCountEiiENK3$_0clEv"(ptr noundef nonnull align 1 dereferenceable(1) %7)
  br label %20

20:                                               ; preds = %19, %18
  call void @llvm.lifetime.end.p0(i64 1, ptr %7) #18
  %21 = load i32, ptr %6, align 4, !tbaa !27
  %22 = icmp sgt i32 %21, 0
  call void @llvm.lifetime.start.p0(i64 1, ptr %8) #18
  br i1 %22, label %23, label %24

23:                                               ; preds = %20
  br label %25

24:                                               ; preds = %20
  call void @"_ZZN3gmx20AbstractAnalysisData14setColumnCountEiiENK3$_1clEv"(ptr noundef nonnull align 1 dereferenceable(1) %8)
  br label %25

25:                                               ; preds = %24, %23
  call void @llvm.lifetime.end.p0(i64 1, ptr %8) #18
  call void @llvm.lifetime.start.p0(i64 1, ptr %9) #18
  %26 = load i32, ptr %6, align 4, !tbaa !27
  %27 = icmp sgt i32 %26, 1
  %28 = zext i1 %27 to i8
  store i8 %28, ptr %9, align 1, !tbaa !189
  call void @llvm.lifetime.start.p0(i64 4, ptr %10) #18
  store i32 0, ptr %10, align 4, !tbaa !27
  br label %29

29:                                               ; preds = %50, %25
  %30 = load i32, ptr %10, align 4, !tbaa !27
  %31 = call noundef i32 @_ZNK3gmx20AbstractAnalysisData12dataSetCountEv(ptr noundef nonnull align 8 dereferenceable(16) %11)
  %32 = icmp slt i32 %30, %31
  br i1 %32, label %33, label %37

33:                                               ; preds = %29
  %34 = load i8, ptr %9, align 1, !tbaa !189, !range !83, !noundef !84
  %35 = trunc i8 %34 to i1
  %36 = xor i1 %35, true
  br label %37

37:                                               ; preds = %33, %29
  %38 = phi i1 [ false, %29 ], [ %36, %33 ]
  br i1 %38, label %40, label %39

39:                                               ; preds = %37
  call void @llvm.lifetime.end.p0(i64 4, ptr %10) #18
  br label %53

40:                                               ; preds = %37
  %41 = load i32, ptr %10, align 4, !tbaa !27
  %42 = load i32, ptr %5, align 4, !tbaa !27
  %43 = icmp ne i32 %41, %42
  br i1 %43, label %44, label %49

44:                                               ; preds = %40
  %45 = load i32, ptr %10, align 4, !tbaa !27
  %46 = call noundef i32 @_ZNK3gmx20AbstractAnalysisData11columnCountEi(ptr noundef nonnull align 8 dereferenceable(16) %11, i32 noundef %45)
  %47 = icmp sgt i32 %46, 1
  br i1 %47, label %48, label %49

48:                                               ; preds = %44
  store i8 1, ptr %9, align 1, !tbaa !189
  br label %49

49:                                               ; preds = %48, %44, %40
  br label %50

50:                                               ; preds = %49
  %51 = load i32, ptr %10, align 4, !tbaa !27
  %52 = add nsw i32 %51, 1
  store i32 %52, ptr %10, align 4, !tbaa !27
  br label %29, !llvm.loop !225

53:                                               ; preds = %39
  %54 = getelementptr inbounds nuw %"class.gmx::AbstractAnalysisData", ptr %11, i32 0, i32 1
  %55 = call noundef ptr @_ZNKSt10unique_ptrIN3gmx20AbstractAnalysisData4ImplESt14default_deleteIS2_EEptEv(ptr noundef nonnull align 8 dereferenceable(8) %54) #18
  %56 = getelementptr inbounds nuw %"class.gmx::AbstractAnalysisData::Impl", ptr %55, i32 0, i32 2
  %57 = load i8, ptr %9, align 1, !tbaa !189, !range !83, !noundef !84
  %58 = trunc i8 %57 to i1
  call void @_ZN3gmx25AnalysisDataModuleManager25dataPropertyAboutToChangeENS0_12DataPropertyEb(ptr noundef nonnull align 8 dereferenceable(8) %56, i32 noundef 1, i1 noundef zeroext %58)
  %59 = load i32, ptr %6, align 4, !tbaa !27
  %60 = getelementptr inbounds nuw %"class.gmx::AbstractAnalysisData", ptr %11, i32 0, i32 1
  %61 = call noundef ptr @_ZNKSt10unique_ptrIN3gmx20AbstractAnalysisData4ImplESt14default_deleteIS2_EEptEv(ptr noundef nonnull align 8 dereferenceable(8) %60) #18
  %62 = getelementptr inbounds nuw %"class.gmx::AbstractAnalysisData::Impl", ptr %61, i32 0, i32 0
  %63 = load i32, ptr %5, align 4, !tbaa !27
  %64 = sext i32 %63 to i64
  %65 = call noundef nonnull align 4 dereferenceable(4) ptr @_ZNSt6vectorIiSaIiEEixEm(ptr noundef nonnull align 8 dereferenceable(24) %62, i64 noundef %64) #18
  store i32 %59, ptr %65, align 4, !tbaa !27
  call void @llvm.lifetime.end.p0(i64 1, ptr %9) #18
  ret void
}