; Function Attrs: mustprogress uwtable
define void @_ZN3gmx20AbstractAnalysisData14setColumnCountEii(ptr noundef nonnull readonly align 8 captures(none) dereferenceable(16) %0, i32 noundef %1, i32 noundef %2) local_unnamed_addr #1 align 2 {
  %4 = icmp sgt i32 %1, -1
  br i1 %4, label %5, label %17

5:                                                ; preds = %3
  %6 = getelementptr inbounds nuw i8, ptr %0, i64 8
  %7 = load ptr, ptr %6, align 8, !tbaa !16
  %8 = getelementptr inbounds nuw i8, ptr %7, i64 8
  %9 = load ptr, ptr %8, align 8, !tbaa !4
  %10 = load ptr, ptr %7, align 8, !tbaa !13
  %11 = ptrtoint ptr %9 to i64
  %12 = ptrtoint ptr %10 to i64
  %13 = sub i64 %11, %12
  %14 = lshr exact i64 %13, 2
  %15 = trunc i64 %14 to i32
  %16 = icmp slt i32 %1, %15
  br i1 %16, label %18, label %17

17:                                               ; preds = %5, %3
  tail call void @_ZN3gmx8internal13assertHandlerEPKcS2_S2_S2_i(ptr noundef nonnull @.str.11, ptr noundef nonnull @.str.12, ptr noundef nonnull @"__PRETTY_FUNCTION__._ZZN3gmx20AbstractAnalysisData14setColumnCountEiiENK3$_0clEv", ptr noundef nonnull @.str.2, i32 noundef 183) #24
  unreachable

18:                                               ; preds = %5
  %19 = icmp sgt i32 %2, 0
  br i1 %19, label %21, label %20

20:                                               ; preds = %18
  tail call void @_ZN3gmx8internal13assertHandlerEPKcS2_S2_S2_i(ptr noundef nonnull @.str.13, ptr noundef nonnull @.str.9, ptr noundef nonnull @"__PRETTY_FUNCTION__._ZZN3gmx20AbstractAnalysisData14setColumnCountEiiENK3$_0clEv", ptr noundef nonnull @.str.2, i32 noundef 184) #24
  unreachable

21:                                               ; preds = %18
  %.not20 = icmp eq i32 %2, 1
  %.pre = zext nneg i32 %1 to i64
  br i1 %.not20, label %.lr.ph.preheader, label %._crit_edge

.lr.ph.preheader:                                 ; preds = %21
  %22 = and i64 %14, 2147483647
  br label %.lr.ph

._crit_edge:                                      ; preds = %31, %21
  %.013.lcssa = phi i1 [ true, %21 ], [ %.1, %31 ]
  %23 = getelementptr inbounds nuw i8, ptr %7, i64 32
  tail call void @_ZN3gmx25AnalysisDataModuleManager25dataPropertyAboutToChangeENS0_12DataPropertyEb(ptr noundef nonnull align 8 dereferenceable(8) %23, i32 noundef 1, i1 noundef zeroext %.013.lcssa)
  %24 = load ptr, ptr %6, align 8, !tbaa !16
  %25 = load ptr, ptr %24, align 8, !tbaa !13
  %26 = getelementptr inbounds nuw i32, ptr %25, i64 %.pre
  store i32 %2, ptr %26, align 4, !tbaa !11
  ret void

.lr.ph:                                           ; preds = %.lr.ph.preheader, %31
  %indvars.iv = phi i64 [ 0, %.lr.ph.preheader ], [ %indvars.iv.next, %31 ]
  %.not = icmp eq i64 %indvars.iv, %.pre
  br i1 %.not, label %31, label %27

27:                                               ; preds = %.lr.ph
  %28 = getelementptr inbounds nuw i32, ptr %10, i64 %indvars.iv
  %29 = load i32, ptr %28, align 4, !tbaa !11
  %30 = icmp sgt i32 %29, 1
  br label %31

31:                                               ; preds = %27, %.lr.ph
  %.1 = phi i1 [ false, %.lr.ph ], [ %30, %27 ]
  %indvars.iv.next = add nuw nsw i64 %indvars.iv, 1
  %32 = icmp samesign uge i64 %indvars.iv.next, %22
  %.not15 = select i1 %32, i1 true, i1 %.1
  br i1 %.not15, label %._crit_edge, label %.lr.ph, !llvm.loop !83
}